Certificate:
    Data:
        Version: 3 (0x2)
        Serial Number: 1 (0x1)
        Signature Algorithm: md5WithRSAEncryption
        Issuer: C=ua, O=CoreLab, CN=RootCertificate
        Validity
            Not Before: Sep 24 15:31:18 2007 GMT
            Not After : Sep 22 15:31:18 2012 GMT
        Subject: C=ua, O=CoreLab, CN=MySQLClient
        Subject Public Key Info:
            Public Key Algorithm: rsaEncryption
            RSA Public Key: (2048 bit)
                Modulus (2048 bit):
                    00:e7:9e:f3:9f:6c:30:5d:06:3f:2d:e2:6d:45:1d:
                    df:f3:49:1d:8c:24:c3:dc:e1:17:b8:de:55:34:9e:
                    dc:05:5a:f1:22:7a:46:bf:b1:9d:bf:e9:1d:90:72:
                    1a:2e:92:ce:87:0d:df:f5:7a:50:ba:be:08:f9:37:
                    3a:fb:3a:fd:e9:19:bd:9b:7b:85:95:aa:62:08:d9:
                    0f:cf:44:9c:24:98:fb:a0:40:b1:2f:ab:66:5e:f5:
                    b1:d6:39:1f:04:a9:88:76:f1:8a:1c:da:69:75:e6:
                    42:68:1f:b9:d7:26:f5:a9:47:a0:d4:0b:6c:61:b8:
                    1f:2f:b6:ec:dd:38:73:e5:bc:87:1a:0a:f3:f8:27:
                    5e:fb:0c:9f:e6:b0:db:8d:53:04:19:f1:23:cf:5c:
                    55:2b:99:63:28:03:6e:50:6d:d3:a1:47:48:9a:97:
                    9a:e1:8c:96:bc:f2:f5:4e:e4:d5:74:b7:2b:60:43:
                    26:db:d5:75:2a:ad:a3:19:01:68:b2:c2:ae:88:c9:
                    74:36:d9:10:e6:0c:50:96:ab:15:29:23:9f:51:b1:
                    8d:b1:8e:42:38:ac:74:4e:b7:63:fb:f6:c5:b9:63:
                    79:5c:e5:c1:bc:46:4f:e0:4c:11:e5:0f:80:46:22:
                    4a:d9:69:49:21:92:d7:de:28:c1:55:20:07:12:76:
                    e0:51
                Exponent: 65537 (0x10001)
        X509v3 extensions:
            X509v3 Basic Constraints: 
                CA:FALSE
            Netscape Comment: 
                OpenSSL Generated Certificate
            X509v3 Subject Key Identifier: 
                4D:8E:72:E2:F0:4C:10:A6:06:83:07:91:69:84:A9:6F:C9:24:D2:00
            X509v3 Authority Key Identifier: 
                keyid:5D:A8:ED:89:56:1C:B1:AE:8B:5E:D1:05:9C:71:9A:99:72:C3:0A:7A
                DirName:/C=ua/O=CoreLab/CN=RootCertificate
                serial:00

    Signature Algorithm: md5WithRSAEncryption
        67:3e:03:4b:0e:cd:d6:9f:d3:d4:29:bb:8e:93:32:48:b6:12:
        f8:d5:12:57:fe:65:69:58:5f:1e:a2:4c:33:81:b1:2f:e1:45:
        2a:53:7e:9b:ab:74:60:93:d1:dc:6d:ce:d7:45:97:07:4e:cf:
        aa:65:6a:b0:e1:38:ad:8d:43:c9:5d:49:26:6d:4e:69:e3:26:
        e0:a9:f8:d8:c4:44:84:7a:0b:04:8b:ab:96:aa:a4:98:e4:c1:
        a9:4f:9d:d3:e6:dd:fe:9e:5d:e3:1e:50:3e:89:f2:fe:52:9c:
        27:c3:96:9d:84:11:f4:66:cd:bd:2f:e4:5d:58:75:7b:ee:e6:
        b6:f5:28:65:0a:ce:f7:54:cf:0c:74:c1:19:69:f0:59:0d:ab:
        2e:7a:5a:62:7a:5d:7b:17:b3:a0:fb:6a:2c:09:c3:8e:cb:82:
        a9:1e:f7:fe:e5:72:83:e6:48:ed:ca:21:6c:3e:09:64:c1:fa:
        fc:79:1d:52:1a:f8:92:67:79:40:b5:3b:f6:a4:a1:ec:9e:23:
        2f:ef:0b:02:31:bd:c8:a2:c7:f4:b1:75:45:a5:ed:22:f3:7c:
        c3:73:cd:0f:73:71:87:b1:6d:c7:6f:4b:20:4c:da:9e:92:ae:
        04:3c:81:41:ce:35:f6:a6:9c:c8:f9:53:1e:d5:f5:bb:9d:c6:
        de:f4:a1:1b
-----BEGIN CERTIFICATE-----
MIIDqDCCApCgAwIBAgIBATANBgkqhkiG9w0BAQQFADA5MQswCQYDVQQGEwJ1YTEQ
MA4GA1UEChMHQ29yZUxhYjEYMBYGA1UEAxMPUm9vdENlcnRpZmljYXRlMB4XDTA3
MDkyNDE1MzExOFoXDTEyMDkyMjE1MzExOFowNTELMAkGA1UEBhMCdWExEDAOBgNV
BAoTB0NvcmVMYWIxFDASBgNVBAMTC015U1FMQ2xpZW50MIIBIjANBgkqhkiG9w0B
AQEFAAOCAQ8AMIIBCgKCAQEA557zn2wwXQY/LeJtRR3f80kdjCTD3OEXuN5VNJ7c
BVrxInpGv7Gdv+kdkHIaLpLOhw3f9XpQur4I+Tc6+zr96Rm9m3uFlapiCNkPz0Sc
JJj7oECxL6tmXvWx1jkfBKmIdvGKHNppdeZCaB+51yb1qUeg1AtsYbgfL7bs3Thz
5byHGgrz+Cde+wyf5rDbjVMEGfEjz1xVK5ljKANuUG3ToUdImpea4YyWvPL1TuTV
dLcrYEMm29V1Kq2jGQFossKuiMl0NtkQ5gxQlqsVKSOfUbGNsY5COKx0Trdj+/bF
uWN5XOXBvEZP4EwR5Q+ARiJK2WlJIZLX3ijBVSAHEnbgUQIDAQABo4G+MIG7MAkG
A1UdEwQCMAAwLAYJYIZIAYb4QgENBB8WHU9wZW5TU0wgR2VuZXJhdGVkIENlcnRp
ZmljYXRlMB0GA1UdDgQWBBRNjnLi8EwQpgaDB5FphKlvySTSADBhBgNVHSMEWjBY
gBRdqO2JVhyxrote0QWccZqZcsMKeqE9pDswOTELMAkGA1UEBhMCdWExEDAOBgNV
BAoTB0NvcmVMYWIxGDAWBgNVBAMTD1Jvb3RDZXJ0aWZpY2F0ZYIBADANBgkqhkiG
9w0BAQQFAAOCAQEAZz4DSw7N1p/T1Cm7jpMySLYS+NUSV/5laVhfHqJMM4GxL+FF
KlN+m6t0YJPR3G3O10WXB07PqmVqsOE4rY1DyV1JJm1OaeMm4Kn42MREhHoLBIur
lqqkmOTBqU+d0+bd/p5d4x5QPony/lKcJ8OWnYQR9GbNvS/kXVh1e+7mtvUoZQrO
91TPDHTBGWnwWQ2rLnpaYnpdexezoPtqLAnDjsuCqR73/uVyg+ZI7cohbD4JZMH6
/HkdUhr4kmd5QLU79qSh7J4jL+8LAjG9yKLH9LF1RaXtIvN8w3PND3Nxh7Ftx29L
IEzanpKuBDyBQc419qacyPlTHtX1u53G3vShGw==
-----END CERTIFICATE-----
