Certificate:
    Data:
        Version: 3 (0x2)
        Serial Number: 1 (0x1)
        Signature Algorithm: md5WithRSAEncryption
        Issuer: C=ua, O=CoreLab, CN=RootCertificate
        Validity
            Not Before: Sep 24 15:32:48 2007 GMT
            Not After : Sep 22 15:32:48 2012 GMT
        Subject: C=ua, O=CoreLab, CN=MySQLServer
        Subject Public Key Info:
            Public Key Algorithm: rsaEncryption
            RSA Public Key: (2048 bit)
                Modulus (2048 bit):
                    00:db:82:29:76:34:95:a3:5d:6c:0d:00:c6:05:18:
                    49:f5:29:65:4e:39:e3:0b:c4:aa:77:b7:10:dc:2d:
                    f7:35:7b:59:ab:30:8f:8b:50:33:bb:23:f6:c2:11:
                    31:e7:1d:fa:2b:19:06:c2:54:45:9f:27:4b:87:bf:
                    d5:00:e5:b1:72:3f:46:29:8b:05:2d:4c:34:26:dc:
                    83:92:bd:f4:ec:01:28:00:07:e7:7e:88:fb:e2:fe:
                    42:48:03:c4:e0:ac:13:ff:35:2a:4e:01:55:54:25:
                    e5:21:08:71:b1:3a:c8:48:f9:2f:e3:29:28:f6:a3:
                    75:61:75:dc:64:8d:44:3f:7f:50:59:3b:fb:8a:94:
                    80:71:7b:bf:e3:fc:59:53:95:14:a9:41:35:cf:07:
                    74:28:c8:5a:7a:2f:6c:e4:82:69:9d:42:fb:06:e7:
                    a6:79:3a:ad:71:93:e7:19:b7:fe:c5:85:76:30:7d:
                    67:9b:8e:99:9b:dd:35:57:16:d4:d9:5e:44:d2:81:
                    42:4e:33:8b:de:00:3b:50:3b:07:a1:cf:9d:ef:04:
                    b1:df:5a:13:15:ec:18:77:e9:6e:71:2e:be:7a:82:
                    72:8b:1d:d8:31:ef:2f:ab:e4:ff:39:f4:06:02:63:
                    9d:26:95:8c:1b:2f:87:e5:93:c1:50:1f:eb:dd:85:
                    da:a3
                Exponent: 65537 (0x10001)
        X509v3 extensions:
            X509v3 Basic Constraints: 
                CA:FALSE
            Netscape Comment: 
                OpenSSL Generated Certificate
            X509v3 Subject Key Identifier: 
                1B:CE:C2:22:63:FD:CF:BF:7C:00:50:5B:53:20:BA:02:EE:55:11:8F
            X509v3 Authority Key Identifier: 
                keyid:5D:A8:ED:89:56:1C:B1:AE:8B:5E:D1:05:9C:71:9A:99:72:C3:0A:7A
                DirName:/C=ua/O=CoreLab/CN=RootCertificate
                serial:00

    Signature Algorithm: md5WithRSAEncryption
        85:c8:aa:14:0d:01:4d:4b:10:88:7a:0a:70:c0:8a:7a:a6:3c:
        c6:e9:9c:5e:9c:f2:27:05:d5:3c:a4:d7:50:74:db:f8:bf:66:
        0e:14:e1:a2:b9:0e:ea:44:62:ed:1e:14:5f:4b:ba:ca:17:97:
        61:82:61:9d:49:29:0e:84:08:24:15:da:5d:64:75:88:1a:e3:
        cb:75:9b:af:72:a4:87:ed:f1:c7:8f:4c:6c:6f:3a:68:b0:30:
        a3:4e:a6:24:15:1b:5e:46:df:28:a3:09:3b:3c:b9:d3:2c:63:
        c5:c6:22:8e:a5:a7:43:fe:ae:35:68:3d:d5:8b:2a:50:fc:a9:
        60:69:59:87:48:b0:4d:56:58:b4:03:e7:76:0b:41:72:8f:d4:
        1d:69:8d:20:50:a5:72:d0:51:1c:f4:96:77:31:74:a2:55:2b:
        4e:86:b3:d8:5c:3b:71:e0:4f:af:92:f9:cc:d8:15:67:2b:f0:
        c8:e4:e2:d4:f6:ec:bf:4c:97:7c:80:a2:7c:a7:db:c4:13:5a:
        14:14:d1:ea:75:29:6d:0b:d6:90:c0:e7:4f:70:b7:1e:89:ba:
        2b:41:a8:b6:fa:d8:f3:0b:b9:80:cc:1c:cf:13:df:69:30:e5:
        72:95:15:60:12:ec:40:96:57:21:b8:1a:44:41:a2:10:48:50:
        d3:32:90:96
-----BEGIN CERTIFICATE-----
MIIDqDCCApCgAwIBAgIBATANBgkqhkiG9w0BAQQFADA5MQswCQYDVQQGEwJ1YTEQ
MA4GA1UEChMHQ29yZUxhYjEYMBYGA1UEAxMPUm9vdENlcnRpZmljYXRlMB4XDTA3
MDkyNDE1MzI0OFoXDTEyMDkyMjE1MzI0OFowNTELMAkGA1UEBhMCdWExEDAOBgNV
BAoTB0NvcmVMYWIxFDASBgNVBAMTC015U1FMU2VydmVyMIIBIjANBgkqhkiG9w0B
AQEFAAOCAQ8AMIIBCgKCAQEA24IpdjSVo11sDQDGBRhJ9SllTjnjC8Sqd7cQ3C33
NXtZqzCPi1AzuyP2whEx5x36KxkGwlRFnydLh7/VAOWxcj9GKYsFLUw0JtyDkr30
7AEoAAfnfoj74v5CSAPE4KwT/zUqTgFVVCXlIQhxsTrISPkv4yko9qN1YXXcZI1E
P39QWTv7ipSAcXu/4/xZU5UUqUE1zwd0KMhaei9s5IJpnUL7BuemeTqtcZPnGbf+
xYV2MH1nm46Zm901VxbU2V5E0oFCTjOL3gA7UDsHoc+d7wSx31oTFewYd+lucS6+
eoJyix3YMe8vq+T/OfQGAmOdJpWMGy+H5ZPBUB/r3YXaowIDAQABo4G+MIG7MAkG
A1UdEwQCMAAwLAYJYIZIAYb4QgENBB8WHU9wZW5TU0wgR2VuZXJhdGVkIENlcnRp
ZmljYXRlMB0GA1UdDgQWBBQbzsIiY/3Pv3wAUFtTILoC7lURjzBhBgNVHSMEWjBY
gBRdqO2JVhyxrote0QWccZqZcsMKeqE9pDswOTELMAkGA1UEBhMCdWExEDAOBgNV
BAoTB0NvcmVMYWIxGDAWBgNVBAMTD1Jvb3RDZXJ0aWZpY2F0ZYIBADANBgkqhkiG
9w0BAQQFAAOCAQEAhciqFA0BTUsQiHoKcMCKeqY8xumcXpzyJwXVPKTXUHTb+L9m
DhThorkO6kRi7R4UX0u6yheXYYJhnUkpDoQIJBXaXWR1iBrjy3Wbr3Kkh+3xx49M
bG86aLAwo06mJBUbXkbfKKMJOzy50yxjxcYijqWnQ/6uNWg91YsqUPypYGlZh0iw
TVZYtAPndgtBco/UHWmNIFClctBRHPSWdzF0olUrToaz2Fw7ceBPr5L5zNgVZyvw
yOTi1Pbsv0yXfICifKfbxBNaFBTR6nUpbQvWkMDnT3C3Hom6K0GotvrY8wu5gMwc
zxPfaTDlcpUVYBLsQJZXIbgaREGiEEhQ0zKQlg==
-----END CERTIFICATE-----
